; ModuleID = '57/1646.c'
source_filename = "57/1646.c"
target datalayout = "e-m:e-p270:32:32-p271:32:32-p272:64:64-i64:64-f80:128-n8:16:32:64-S128"
target triple = "x86_64-pc-linux-gnu"

@.str = private unnamed_addr constant [3 x i8] c"%d\00", align 1
@.str.1 = private unnamed_addr constant [3 x i8] c"%s\00", align 1
@.str.2 = private unnamed_addr constant [4 x i8] c"ing\00", align 1
@.str.3 = private unnamed_addr constant [4 x i8] c"%s\0A\00", align 1
@.str.4 = private unnamed_addr constant [3 x i8] c"ly\00", align 1
@.str.5 = private unnamed_addr constant [3 x i8] c"er\00", align 1

; Function Attrs: noinline nounwind uwtable
define dso_local i32 @main(i32 %0, i8** %1) #0 {
  %3 = alloca i32, align 4
  %4 = alloca i32, align 4
  %5 = alloca i8**, align 8
  %6 = alloca i32, align 4
  %7 = alloca i32, align 4
  %8 = alloca [100 x i8], align 16
  %9 = alloca i32, align 4
  %10 = alloca [4 x i8], align 1
  %11 = alloca [3 x i8], align 1
  %12 = alloca [100 x i8], align 16
  %13 = alloca i32, align 4
  %14 = alloca [100 x i8], align 16
  %15 = alloca i32, align 4
  store i32 0, i32* %3, align 4
  store i32 %0, i32* %4, align 4
  store i8** %1, i8*** %5, align 8
  %16 = call i32 (i8*, ...) @__isoc99_scanf(i8* getelementptr inbounds ([3 x i8], [3 x i8]* @.str, i64 0, i64 0), i32* %6)
  store i32 0, i32* %7, align 4
  br label %17

17:                                               ; preds = %120, %2
  %18 = load i32, i32* %7, align 4
  %19 = load i32, i32* %6, align 4
  %20 = icmp slt i32 %18, %19
  br i1 %20, label %21, label %123

21:                                               ; preds = %17
  %22 = getelementptr inbounds [100 x i8], [100 x i8]* %8, i64 0, i64 0
  %23 = call i32 (i8*, ...) @__isoc99_scanf(i8* getelementptr inbounds ([3 x i8], [3 x i8]* @.str.1, i64 0, i64 0), i8* %22)
  %24 = getelementptr inbounds [100 x i8], [100 x i8]* %8, i64 0, i64 0
  %25 = call i64 @strlen(i8* %24) #3
  %26 = trunc i64 %25 to i32
  store i32 %26, i32* %9, align 4
  %27 = load i32, i32* %9, align 4
  %28 = sub nsw i32 %27, 3
  %29 = sext i32 %28 to i64
  %30 = getelementptr inbounds [100 x i8], [100 x i8]* %8, i64 0, i64 %29
  %31 = load i8, i8* %30, align 1
  %32 = getelementptr inbounds [4 x i8], [4 x i8]* %10, i64 0, i64 0
  store i8 %31, i8* %32, align 1
  %33 = load i32, i32* %9, align 4
  %34 = sub nsw i32 %33, 2
  %35 = sext i32 %34 to i64
  %36 = getelementptr inbounds [100 x i8], [100 x i8]* %8, i64 0, i64 %35
  %37 = load i8, i8* %36, align 1
  %38 = getelementptr inbounds [4 x i8], [4 x i8]* %10, i64 0, i64 1
  store i8 %37, i8* %38, align 1
  %39 = load i32, i32* %9, align 4
  %40 = sub nsw i32 %39, 1
  %41 = sext i32 %40 to i64
  %42 = getelementptr inbounds [100 x i8], [100 x i8]* %8, i64 0, i64 %41
  %43 = load i8, i8* %42, align 1
  %44 = getelementptr inbounds [4 x i8], [4 x i8]* %10, i64 0, i64 2
  store i8 %43, i8* %44, align 1
  %45 = getelementptr inbounds [4 x i8], [4 x i8]* %10, i64 0, i64 3
  store i8 0, i8* %45, align 1
  %46 = load i32, i32* %9, align 4
  %47 = sub nsw i32 %46, 2
  %48 = sext i32 %47 to i64
  %49 = getelementptr inbounds [100 x i8], [100 x i8]* %8, i64 0, i64 %48
  %50 = load i8, i8* %49, align 1
  %51 = getelementptr inbounds [3 x i8], [3 x i8]* %11, i64 0, i64 0
  store i8 %50, i8* %51, align 1
  %52 = load i32, i32* %9, align 4
  %53 = sub nsw i32 %52, 1
  %54 = sext i32 %53 to i64
  %55 = getelementptr inbounds [100 x i8], [100 x i8]* %8, i64 0, i64 %54
  %56 = load i8, i8* %55, align 1
  %57 = getelementptr inbounds [3 x i8], [3 x i8]* %11, i64 0, i64 1
  store i8 %56, i8* %57, align 1
  %58 = getelementptr inbounds [3 x i8], [3 x i8]* %11, i64 0, i64 2
  store i8 0, i8* %58, align 1
  %59 = getelementptr inbounds [4 x i8], [4 x i8]* %10, i64 0, i64 0
  %60 = call i32 @strcmp(i8* %59, i8* getelementptr inbounds ([4 x i8], [4 x i8]* @.str.2, i64 0, i64 0)) #3
  %61 = icmp eq i32 %60, 0
  br i1 %61, label %62, label %86

62:                                               ; preds = %21
  store i32 0, i32* %13, align 4
  br label %63

63:                                               ; preds = %76, %62
  %64 = load i32, i32* %13, align 4
  %65 = load i32, i32* %9, align 4
  %66 = sub nsw i32 %65, 3
  %67 = icmp slt i32 %64, %66
  br i1 %67, label %68, label %79

68:                                               ; preds = %63
  %69 = load i32, i32* %13, align 4
  %70 = sext i32 %69 to i64
  %71 = getelementptr inbounds [100 x i8], [100 x i8]* %8, i64 0, i64 %70
  %72 = load i8, i8* %71, align 1
  %73 = load i32, i32* %13, align 4
  %74 = sext i32 %73 to i64
  %75 = getelementptr inbounds [100 x i8], [100 x i8]* %12, i64 0, i64 %74
  store i8 %72, i8* %75, align 1
  br label %76

76:                                               ; preds = %68
  %77 = load i32, i32* %13, align 4
  %78 = add nsw i32 %77, 1
  store i32 %78, i32* %13, align 4
  br label %63

79:                                               ; preds = %63
  %80 = load i32, i32* %9, align 4
  %81 = sub nsw i32 %80, 3
  %82 = sext i32 %81 to i64
  %83 = getelementptr inbounds [100 x i8], [100 x i8]* %12, i64 0, i64 %82
  store i8 0, i8* %83, align 1
  %84 = getelementptr inbounds [100 x i8], [100 x i8]* %12, i64 0, i64 0
  %85 = call i32 (i8*, ...) @printf(i8* getelementptr inbounds ([4 x i8], [4 x i8]* @.str.3, i64 0, i64 0), i8* %84)
  br label %119

86:                                               ; preds = %21
  %87 = getelementptr inbounds [3 x i8], [3 x i8]* %11, i64 0, i64 0
  %88 = call i32 @strcmp(i8* %87, i8* getelementptr inbounds ([3 x i8], [3 x i8]* @.str.4, i64 0, i64 0)) #3
  %89 = icmp eq i32 %88, 0
  br i1 %89, label %94, label %90

90:                                               ; preds = %86
  %91 = getelementptr inbounds [3 x i8], [3 x i8]* %11, i64 0, i64 0
  %92 = call i32 @strcmp(i8* %91, i8* getelementptr inbounds ([3 x i8], [3 x i8]* @.str.5, i64 0, i64 0)) #3
  %93 = icmp eq i32 %92, 0
  br i1 %93, label %94, label %118

94:                                               ; preds = %90, %86
  store i32 0, i32* %15, align 4
  br label %95

95:                                               ; preds = %108, %94
  %96 = load i32, i32* %15, align 4
  %97 = load i32, i32* %9, align 4
  %98 = sub nsw i32 %97, 2
  %99 = icmp slt i32 %96, %98
  br i1 %99, label %100, label %111

100:                                              ; preds = %95
  %101 = load i32, i32* %15, align 4
  %102 = sext i32 %101 to i64
  %103 = getelementptr inbounds [100 x i8], [100 x i8]* %8, i64 0, i64 %102
  %104 = load i8, i8* %103, align 1
  %105 = load i32, i32* %15, align 4
  %106 = sext i32 %105 to i64
  %107 = getelementptr inbounds [100 x i8], [100 x i8]* %14, i64 0, i64 %106
  store i8 %104, i8* %107, align 1
  br label %108

108:                                              ; preds = %100
  %109 = load i32, i32* %15, align 4
  %110 = add nsw i32 %109, 1
  store i32 %110, i32* %15, align 4
  br label %95

111:                                              ; preds = %95
  %112 = load i32, i32* %9, align 4
  %113 = sub nsw i32 %112, 2
  %114 = sext i32 %113 to i64
  %115 = getelementptr inbounds [100 x i8], [100 x i8]* %14, i64 0, i64 %114
  store i8 0, i8* %115, align 1
  %116 = getelementptr inbounds [100 x i8], [100 x i8]* %14, i64 0, i64 0
  %117 = call i32 (i8*, ...) @printf(i8* getelementptr inbounds ([4 x i8], [4 x i8]* @.str.3, i64 0, i64 0), i8* %116)
  br label %118

118:                                              ; preds = %111, %90
  br label %119

119:                                              ; preds = %118, %79
  br label %120

120:                                              ; preds = %119
  %121 = load i32, i32* %7, align 4
  %122 = add nsw i32 %121, 1
  store i32 %122, i32* %7, align 4
  br label %17

123:                                              ; preds = %17
  ret i32 0
}

declare dso_local i32 @__isoc99_scanf(i8*, ...) #1

; Function Attrs: nounwind readonly
declare dso_local i64 @strlen(i8*) #2

; Function Attrs: nounwind readonly
declare dso_local i32 @strcmp(i8*, i8*) #2

declare dso_local i32 @printf(i8*, ...) #1


!llvm.module.flags = !{!0}
!llvm.ident = !{!1}

!0 = !{i32 1, !"wchar_size", i32 4}
!1 = !{!"clang version 10.0.0-4ubuntu1 "}
